	.file	"nested_func.c"
	.text
	.type	nested.1727, @function
nested.1727:
.LFB1:
	.cfi_startproc
	pushq	%rbp
	.cfi_def_cfa_offset 16
	.cfi_offset 6, -16
	movq	%rsp, %rbp
	.cfi_def_cfa_register 6
	movl	%edi, -4(%rbp)
	movq	%r10, %rax
	movl	(%rax), %edx
	movl	-4(%rbp), %eax
	addl	%edx, %eax
	popq	%rbp
	.cfi_def_cfa 7, 8
	ret
	.cfi_endproc
.LFE1:
	.size	nested.1727, .-nested.1727
	.type	f, @function
f:
.LFB0:
	.cfi_startproc
	pushq	%rbp
	.cfi_def_cfa_offset 16
	.cfi_offset 6, -16
	movq	%rsp, %rbp
	.cfi_def_cfa_register 6
	subq	$64, %rsp
	movl	%edi, -52(%rbp)
	movq	%fs:40, %rax
	movq	%rax, -8(%rbp)
	xorl	%eax, %eax
	movl	-52(%rbp), %eax
	movl	%eax, -48(%rbp)
	leaq	-48(%rbp), %rax
	addq	$4, %rax
	leaq	-48(%rbp), %rdx
	movl	$nested.1727, %ecx
	movw	$-17599, (%rax)
	movl	%ecx, 2(%rax)
	movw	$-17847, 6(%rax)
	movq	%rdx, 8(%rax)
	movl	$-1864106167, 16(%rax)
	leaq	-48(%rbp), %rax
	addq	$4, %rax
	movq	-8(%rbp), %rsi
	xorq	%fs:40, %rsi
	je	.L5
	call	__stack_chk_fail
.L5:
	leave
	.cfi_def_cfa 7, 8
	ret
	.cfi_endproc
.LFE0:
	.size	f, .-f
	.globl	main
	.type	main, @function
main:
.LFB2:
	.cfi_startproc
	pushq	%rbp
	.cfi_def_cfa_offset 16
	.cfi_offset 6, -16
	movq	%rsp, %rbp
	.cfi_def_cfa_register 6
	subq	$16, %rsp
	movl	$1, -16(%rbp)
	movl	$2, -12(%rbp)
	movl	$1, %edi
	call	f
	movq	%rax, -8(%rbp)
	movl	$0, %eax
	leave
	.cfi_def_cfa 7, 8
	ret
	.cfi_endproc
.LFE2:
	.size	main, .-main
	.ident	"GCC: (Ubuntu 4.8.2-19ubuntu1) 4.8.2"
	.section	.note.GNU-stack,"x",@progbits
